target datalayout = "e-m:e-p270:32:32-p271:32:32-p272:64:64-i64:64-i128:128-f80:128-n8:16:32:64-S128"
target triple = "x86_64-pc-linux-gnu"

%"struct.pxrInternal_v0_24__pxrReserved__::Vt_DefaultValueHolder" = type { %"class.pxrInternal_v0_24__pxrReserved__::TfAnyUniquePtr", ptr }
%"class.pxrInternal_v0_24__pxrReserved__::TfAnyUniquePtr" = type { ptr, ptr }
%"class.pxrInternal_v0_24__pxrReserved__::GfVec4f" = type { [4 x float] }

@_ZTIN32pxrInternal_v0_24__pxrReserved__7GfVec4fE = linkonce_odr constant { ptr, ptr } { ptr getelementptr inbounds (ptr, ptr @_ZTVN10__cxxabiv117__class_type_infoE, i64 2), ptr @_ZTSN32pxrInternal_v0_24__pxrReserved__7GfVec4fE }, comdat, align 8

; Function Attrs: noreturn nounwind uwtable
define linkonce_odr hidden void @__clang_call_terminate(ptr noundef %0) #11 comdat {
  %2 = call ptr @__cxa_begin_catch(ptr %0) #10
  call void @_ZSt9terminatev() #18
  unreachable
}

; Function Attrs: mustprogress nounwind uwtable
define linkonce_odr void @_ZN32pxrInternal_v0_24__pxrReserved__14TfAnyUniquePtrC2EOS0_(ptr noundef nonnull align 8 dereferenceable(16) %0, ptr noundef nonnull align 8 dereferenceable(16) %1) unnamed_addr #1 comdat align 2 {
  %3 = alloca ptr, align 8
  %4 = alloca ptr, align 8
  store ptr %0, ptr %3, align 8
  store ptr %1, ptr %4, align 8
  %5 = load ptr, ptr %3, align 8
  %6 = getelementptr inbounds nuw %"class.pxrInternal_v0_24__pxrReserved__::TfAnyUniquePtr", ptr %5, i32 0, i32 0
  %7 = load ptr, ptr %4, align 8
  %8 = getelementptr inbounds nuw %"class.pxrInternal_v0_24__pxrReserved__::TfAnyUniquePtr", ptr %7, i32 0, i32 0
  %9 = load ptr, ptr %8, align 8
  store ptr %9, ptr %6, align 8
  %10 = getelementptr inbounds nuw %"class.pxrInternal_v0_24__pxrReserved__::TfAnyUniquePtr", ptr %5, i32 0, i32 1
  %11 = load ptr, ptr %4, align 8
  %12 = getelementptr inbounds nuw %"class.pxrInternal_v0_24__pxrReserved__::TfAnyUniquePtr", ptr %11, i32 0, i32 1
  %13 = load ptr, ptr %12, align 8
  store ptr %13, ptr %10, align 8
  %14 = load ptr, ptr %4, align 8
  %15 = getelementptr inbounds nuw %"class.pxrInternal_v0_24__pxrReserved__::TfAnyUniquePtr", ptr %14, i32 0, i32 0
  store ptr null, ptr %15, align 8
  ret void
}

; Function Attrs: mustprogress nounwind uwtable
define linkonce_odr void @_ZN32pxrInternal_v0_24__pxrReserved__14TfAnyUniquePtrC2INS_7GfVec4fEEEPKT_(ptr noundef nonnull align 8 dereferenceable(16) %0, ptr noundef %1) unnamed_addr #1 comdat align 2 {
  %3 = alloca ptr, align 8
  %4 = alloca ptr, align 8
  store ptr %0, ptr %3, align 8
  store ptr %1, ptr %4, align 8
  %5 = load ptr, ptr %3, align 8
  %6 = getelementptr inbounds nuw %"class.pxrInternal_v0_24__pxrReserved__::TfAnyUniquePtr", ptr %5, i32 0, i32 0
  %7 = load ptr, ptr %4, align 8
  store ptr %7, ptr %6, align 8
  %8 = getelementptr inbounds nuw %"class.pxrInternal_v0_24__pxrReserved__::TfAnyUniquePtr", ptr %5, i32 0, i32 1
  store ptr @_ZN32pxrInternal_v0_24__pxrReserved__14TfAnyUniquePtr7_DeleteINS_7GfVec4fEEEvPKv, ptr %8, align 8
  ret void
}

; Function Attrs: mustprogress nounwind uwtable
define linkonce_odr void @_ZN32pxrInternal_v0_24__pxrReserved__14TfAnyUniquePtrD2Ev(ptr noundef nonnull align 8 dereferenceable(16) %0) unnamed_addr #1 comdat align 2 personality ptr @__gxx_personality_v0 {
  %2 = alloca ptr, align 8
  store ptr %0, ptr %2, align 8
  %3 = load ptr, ptr %2, align 8
  %4 = getelementptr inbounds nuw %"class.pxrInternal_v0_24__pxrReserved__::TfAnyUniquePtr", ptr %3, i32 0, i32 1
  %5 = load ptr, ptr %4, align 8
  %6 = getelementptr inbounds nuw %"class.pxrInternal_v0_24__pxrReserved__::TfAnyUniquePtr", ptr %3, i32 0, i32 0
  %7 = load ptr, ptr %6, align 8
  invoke void %5(ptr noundef %7)
          to label %8 unwind label %9

8:                                                ; preds = %1
  ret void

9:                                                ; preds = %1
  %10 = landingpad { ptr, i32 }
          catch ptr null
  %11 = extractvalue { ptr, i32 } %10, 0
  call void @__clang_call_terminate(ptr %11) #18
  unreachable
}

; Function Attrs: mustprogress uwtable
define linkonce_odr void @_ZN32pxrInternal_v0_24__pxrReserved__21Vt_DefaultValueHolderC2EONS_14TfAnyUniquePtrERKSt9type_info(ptr noundef nonnull align 8 dereferenceable(24) %0, ptr noundef nonnull align 8 dereferenceable(16) %1, ptr noundef nonnull align 8 dereferenceable(16) %2) unnamed_addr #0 comdat align 2 {
  %4 = alloca ptr, align 8
  %5 = alloca ptr, align 8
  %6 = alloca ptr, align 8
  store ptr %0, ptr %4, align 8
  store ptr %1, ptr %5, align 8
  store ptr %2, ptr %6, align 8
  %7 = load ptr, ptr %4, align 8
  %8 = getelementptr inbounds nuw %"struct.pxrInternal_v0_24__pxrReserved__::Vt_DefaultValueHolder", ptr %7, i32 0, i32 0
  %9 = load ptr, ptr %5, align 8
  call void @_ZN32pxrInternal_v0_24__pxrReserved__14TfAnyUniquePtrC2EOS0_(ptr noundef nonnull align 8 dereferenceable(16) %8, ptr noundef nonnull align 8 dereferenceable(16) %9)
  %10 = getelementptr inbounds nuw %"struct.pxrInternal_v0_24__pxrReserved__::Vt_DefaultValueHolder", ptr %7, i32 0, i32 1
  %11 = load ptr, ptr %6, align 8
  store ptr %11, ptr %10, align 8
  ret void
}

; Function Attrs: mustprogress uwtable
define linkonce_odr void @_ZN32pxrInternal_v0_24__pxrReserved__14TfAnyUniquePtr3NewINS_7GfVec4fEEES0_RKT_(ptr dead_on_unwind noalias writable sret(%"class.pxrInternal_v0_24__pxrReserved__::TfAnyUniquePtr") align 8 %0, ptr noundef nonnull align 4 dereferenceable(16) %1) #0 comdat align 2 {
  %3 = alloca ptr, align 8
  %4 = alloca ptr, align 8
  store ptr %0, ptr %3, align 8
  store ptr %1, ptr %4, align 8
  %5 = call noalias noundef nonnull ptr @_Znwm(i64 noundef 16) #16
  %6 = load ptr, ptr %4, align 8
  call void @llvm.memcpy.p0.p0.i64(ptr align 16 %5, ptr align 4 %6, i64 16, i1 false)
  call void @_ZN32pxrInternal_v0_24__pxrReserved__14TfAnyUniquePtrC2INS_7GfVec4fEEEPKT_(ptr noundef nonnull align 8 dereferenceable(16) %0, ptr noundef %5)
  ret void
}

; Function Attrs: mustprogress uwtable
define linkonce_odr void @_ZN32pxrInternal_v0_24__pxrReserved__21Vt_DefaultValueHolder6CreateINS_7GfVec4fEEES0_RKT_(ptr dead_on_unwind noalias writable sret(%"struct.pxrInternal_v0_24__pxrReserved__::Vt_DefaultValueHolder") align 8 %0, ptr noundef nonnull align 4 dereferenceable(16) %1) #0 comdat align 2 personality ptr @__gxx_personality_v0 {
  %3 = alloca ptr, align 8
  %4 = alloca ptr, align 8
  %5 = alloca %"class.pxrInternal_v0_24__pxrReserved__::TfAnyUniquePtr", align 8
  %6 = alloca ptr, align 8
  %7 = alloca i32, align 4
  store ptr %0, ptr %3, align 8
  store ptr %1, ptr %4, align 8
  %8 = load ptr, ptr %4, align 8
  call void @_ZN32pxrInternal_v0_24__pxrReserved__14TfAnyUniquePtr3NewINS_7GfVec4fEEES0_RKT_(ptr dead_on_unwind writable sret(%"class.pxrInternal_v0_24__pxrReserved__::TfAnyUniquePtr") align 8 %5, ptr noundef nonnull align 4 dereferenceable(16) %8)
  invoke void @_ZN32pxrInternal_v0_24__pxrReserved__21Vt_DefaultValueHolderC2EONS_14TfAnyUniquePtrERKSt9type_info(ptr noundef nonnull align 8 dereferenceable(24) %0, ptr noundef nonnull align 8 dereferenceable(16) %5, ptr noundef nonnull align 8 dereferenceable(16) @_ZTIN32pxrInternal_v0_24__pxrReserved__7GfVec4fE)
          to label %9 unwind label %10

9:                                                ; preds = %2
  call void @_ZN32pxrInternal_v0_24__pxrReserved__14TfAnyUniquePtrD2Ev(ptr noundef nonnull align 8 dereferenceable(16) %5) #10
  ret void

10:                                               ; preds = %2
  %11 = landingpad { ptr, i32 }
          cleanup
  %12 = extractvalue { ptr, i32 } %11, 0
  store ptr %12, ptr %6, align 8
  %13 = extractvalue { ptr, i32 } %11, 1
  store i32 %13, ptr %7, align 4
  call void @_ZN32pxrInternal_v0_24__pxrReserved__14TfAnyUniquePtrD2Ev(ptr noundef nonnull align 8 dereferenceable(16) %5) #10
  br label %14

14:                                               ; preds = %10
  %15 = load ptr, ptr %6, align 8
  %16 = load i32, ptr %7, align 4
  %17 = insertvalue { ptr, i32 } poison, ptr %15, 0
  %18 = insertvalue { ptr, i32 } %17, i32 %16, 1
  resume { ptr, i32 } %18
}

; Function Attrs: mustprogress uwtable
define void @_ZN32pxrInternal_v0_24__pxrReserved__22Vt_DefaultValueFactoryINS_7GfVec4fEE6InvokeEv(ptr dead_on_unwind noalias writable sret(%"struct.pxrInternal_v0_24__pxrReserved__::Vt_DefaultValueHolder") align 8 %0) #9 align 2 {
  %2 = alloca ptr, align 8
  %3 = alloca %"class.pxrInternal_v0_24__pxrReserved__::GfVec4f", align 4
  store ptr %0, ptr %2, align 8
  %4 = call { <2 x float>, <2 x float> } @_ZN32pxrInternal_v0_24__pxrReserved__6VtZeroINS_7GfVec4fEEET_v()
  %5 = getelementptr inbounds nuw %"class.pxrInternal_v0_24__pxrReserved__::GfVec4f", ptr %3, i32 0, i32 0
  %6 = getelementptr inbounds nuw { <2 x float>, <2 x float> }, ptr %5, i32 0, i32 0
  %7 = extractvalue { <2 x float>, <2 x float> } %4, 0
  store <2 x float> %7, ptr %6, align 4
  %8 = getelementptr inbounds nuw { <2 x float>, <2 x float> }, ptr %5, i32 0, i32 1
  %9 = extractvalue { <2 x float>, <2 x float> } %4, 1
  store <2 x float> %9, ptr %8, align 4
  call void @_ZN32pxrInternal_v0_24__pxrReserved__21Vt_DefaultValueHolder6CreateINS_7GfVec4fEEES0_RKT_(ptr dead_on_unwind writable sret(%"struct.pxrInternal_v0_24__pxrReserved__::Vt_DefaultValueHolder") align 8 %0, ptr noundef nonnull align 4 dereferenceable(16) %3)
  ret void
}