; Function Attrs: mustprogress uwtable
define void @_ZN32pxrInternal_v0_24__pxrReserved__22Vt_DefaultValueFactoryINS_7GfVec4fEE6InvokeEv(ptr dead_on_unwind noalias nocapture writable writeonly sret(%"struct.pxrInternal_v0_24__pxrReserved__::Vt_DefaultValueHolder") align 8 %0) local_unnamed_addr #8 align 2 personality ptr @__gxx_personality_v0 {
  %2 = tail call { <2 x float>, <2 x float> } @_ZN32pxrInternal_v0_24__pxrReserved__6VtZeroINS_7GfVec4fEEET_v()
  %3 = extractvalue { <2 x float>, <2 x float> } %2, 0
  %4 = extractvalue { <2 x float>, <2 x float> } %2, 1
  tail call void @llvm.experimental.noalias.scope.decl(metadata !105)
  %5 = tail call noalias noundef nonnull dereferenceable(16) ptr @_Znwm(i64 noundef 16) #23, !noalias !108
  store <2 x float> %3, ptr %5, align 16, !noalias !108
  %.sroa.2.0..sroa_idx = getelementptr inbounds i8, ptr %5, i64 8
  store <2 x float> %4, ptr %.sroa.2.0..sroa_idx, align 8, !noalias !108
  store ptr %5, ptr %0, align 8, !alias.scope !105
  %6 = getelementptr inbounds nuw i8, ptr %0, i64 8
  store ptr @_ZN32pxrInternal_v0_24__pxrReserved__14TfAnyUniquePtr7_DeleteINS_7GfVec4fEEEvPKv, ptr %6, align 8, !alias.scope !105
  %7 = getelementptr inbounds nuw i8, ptr %0, i64 16
  store ptr @_ZTIN32pxrInternal_v0_24__pxrReserved__7GfVec4fE, ptr %7, align 8, !alias.scope !105
  ret void
}